target datalayout = "e-m:e-p270:32:32-p271:32:32-p272:64:64-i64:64-i128:128-f80:128-n8:16:32:64-S128"
target triple = "x86_64-pc-linux-gnu"

%"class.icu_77::LocalPointer.10" = type { %"class.icu_77::LocalPointerBase.11" }
%"class.icu_77::LocalPointerBase.11" = type { ptr }

@_ZN6icu_7734SimpleFilteredBreakIteratorBuilderC1ER10UErrorCode = unnamed_addr alias void (ptr, ptr), ptr @_ZN6icu_7734SimpleFilteredBreakIteratorBuilderC2ER10UErrorCode

; Function Attrs: mustprogress nounwind uwtable
define linkonce_odr void @_ZN6icu_7716LocalPointerBaseINS_28FilteredBreakIteratorBuilderEED2Ev(ptr noundef nonnull align 8 dereferenceable(8) %0) unnamed_addr #1 comdat align 2 {
  %2 = alloca ptr, align 8
  store ptr %0, ptr %2, align 8, !tbaa !119
  ret void
}

; Function Attrs: mustprogress nounwind uwtable
define linkonce_odr void @_ZN6icu_7716LocalPointerBaseINS_28FilteredBreakIteratorBuilderEEC2EPS1_(ptr noundef nonnull align 8 dereferenceable(8) %0, ptr noundef %1) unnamed_addr #1 comdat align 2 {
  %3 = alloca ptr, align 8
  %4 = alloca ptr, align 8
  store ptr %0, ptr %3, align 8, !tbaa !119
  store ptr %1, ptr %4, align 8, !tbaa !70
  %5 = load ptr, ptr %3, align 8
  %6 = getelementptr inbounds nuw %"class.icu_77::LocalPointerBase.11", ptr %5, i32 0, i32 0
  %7 = load ptr, ptr %4, align 8, !tbaa !70
  store ptr %7, ptr %6, align 8, !tbaa !121
  ret void
}

; Function Attrs: mustprogress nounwind uwtable
define linkonce_odr void @_ZN6icu_7712LocalPointerINS_28FilteredBreakIteratorBuilderEED2Ev(ptr noundef nonnull align 8 dereferenceable(8) %0) unnamed_addr #1 comdat align 2 {
  %2 = alloca ptr, align 8
  store ptr %0, ptr %2, align 8, !tbaa !117
  %3 = load ptr, ptr %2, align 8
  %4 = getelementptr inbounds nuw %"class.icu_77::LocalPointerBase.11", ptr %3, i32 0, i32 0
  %5 = load ptr, ptr %4, align 8, !tbaa !121
  %6 = icmp eq ptr %5, null
  br i1 %6, label %11, label %7

7:                                                ; preds = %1
  %8 = load ptr, ptr %5, align 8, !tbaa !10
  %9 = getelementptr inbounds ptr, ptr %8, i64 1
  %10 = load ptr, ptr %9, align 8
  call void %10(ptr noundef nonnull align 8 dereferenceable(8) %5) #13
  br label %11

11:                                               ; preds = %7, %1
  call void @_ZN6icu_7716LocalPointerBaseINS_28FilteredBreakIteratorBuilderEED2Ev(ptr noundef nonnull align 8 dereferenceable(8) %3) #13
  ret void
}

; Function Attrs: mustprogress nounwind uwtable
define linkonce_odr noundef ptr @_ZN6icu_7716LocalPointerBaseINS_28FilteredBreakIteratorBuilderEE6orphanEv(ptr noundef nonnull align 8 dereferenceable(8) %0) #1 comdat align 2 {
  %2 = alloca ptr, align 8
  %3 = alloca ptr, align 8
  store ptr %0, ptr %2, align 8, !tbaa !119
  %4 = load ptr, ptr %2, align 8
  call void @llvm.lifetime.start.p0(i64 8, ptr %3) #13
  %5 = getelementptr inbounds nuw %"class.icu_77::LocalPointerBase.11", ptr %4, i32 0, i32 0
  %6 = load ptr, ptr %5, align 8, !tbaa !121
  store ptr %6, ptr %3, align 8, !tbaa !70
  %7 = getelementptr inbounds nuw %"class.icu_77::LocalPointerBase.11", ptr %4, i32 0, i32 0
  store ptr null, ptr %7, align 8, !tbaa !121
  %8 = load ptr, ptr %3, align 8, !tbaa !70
  call void @llvm.lifetime.end.p0(i64 8, ptr %3) #13
  ret ptr %8
}

; Function Attrs: inlinehint mustprogress nounwind uwtable
define internal noundef signext i8 @_ZL9U_SUCCESS10UErrorCode(i32 noundef %0) #5 {
  %2 = alloca i32, align 4
  store i32 %0, ptr %2, align 4, !tbaa !41
  %3 = load i32, ptr %2, align 4, !tbaa !41
  %4 = icmp sle i32 %3, 0
  %5 = zext i1 %4 to i8
  ret i8 %5
}

; Function Attrs: mustprogress uwtable
define linkonce_odr void @_ZN6icu_7712LocalPointerINS_28FilteredBreakIteratorBuilderEEC2EPS1_R10UErrorCode(ptr noundef nonnull align 8 dereferenceable(8) %0, ptr noundef %1, ptr noundef nonnull align 4 dereferenceable(4) %2) unnamed_addr #2 comdat align 2 {
  %4 = alloca ptr, align 8
  %5 = alloca ptr, align 8
  %6 = alloca ptr, align 8
  store ptr %0, ptr %4, align 8, !tbaa !117
  store ptr %1, ptr %5, align 8, !tbaa !70
  store ptr %2, ptr %6, align 8, !tbaa !40
  %7 = load ptr, ptr %4, align 8
  %8 = load ptr, ptr %5, align 8, !tbaa !70
  call void @_ZN6icu_7716LocalPointerBaseINS_28FilteredBreakIteratorBuilderEEC2EPS1_(ptr noundef nonnull align 8 dereferenceable(8) %7, ptr noundef %8)
  %9 = load ptr, ptr %5, align 8, !tbaa !70
  %10 = icmp eq ptr %9, null
  br i1 %10, label %11, label %18

11:                                               ; preds = %3
  %12 = load ptr, ptr %6, align 8, !tbaa !40
  %13 = load i32, ptr %12, align 4, !tbaa !41
  %14 = call noundef signext i8 @_ZL9U_SUCCESS10UErrorCode(i32 noundef %13)
  %15 = icmp ne i8 %14, 0
  br i1 %15, label %16, label %18

16:                                               ; preds = %11
  %17 = load ptr, ptr %6, align 8, !tbaa !40
  store i32 7, ptr %17, align 4, !tbaa !41
  br label %18

18:                                               ; preds = %16, %11, %3
  ret void
}

; Function Attrs: inlinehint mustprogress nounwind uwtable
define internal noundef signext i8 @_ZL9U_FAILURE10UErrorCode(i32 noundef %0) #5 {
  %2 = alloca i32, align 4
  store i32 %0, ptr %2, align 4, !tbaa !41
  %3 = load i32, ptr %2, align 4, !tbaa !41
  %4 = icmp sgt i32 %3, 0
  %5 = zext i1 %4 to i8
  ret i8 %5
}

; Function Attrs: mustprogress uwtable
define noundef ptr @_ZN6icu_7728FilteredBreakIteratorBuilder19createEmptyInstanceER10UErrorCode(ptr noundef nonnull align 4 dereferenceable(4) %0) #2 align 2 personality ptr @__gxx_personality_v0 {
  %2 = alloca ptr, align 8
  %3 = alloca ptr, align 8
  %4 = alloca %"class.icu_77::LocalPointer.10", align 8
  %5 = alloca ptr, align 8
  %6 = alloca i1, align 1
  %7 = alloca ptr, align 8
  %8 = alloca i32, align 4
  store ptr %0, ptr %3, align 8, !tbaa !40
  %9 = load ptr, ptr %3, align 8, !tbaa !40
  %10 = load i32, ptr %9, align 4, !tbaa !41
  %11 = call noundef signext i8 @_ZL9U_FAILURE10UErrorCode(i32 noundef %10)
  %12 = icmp ne i8 %11, 0
  br i1 %12, label %13, label %14

13:                                               ; preds = %1
  store ptr null, ptr %2, align 8
  br label %47

14:                                               ; preds = %1
  call void @llvm.lifetime.start.p0(i64 8, ptr %4) #13
  %15 = call noundef ptr @_ZN6icu_777UMemorynwEm(i64 noundef 48) #13
  %16 = icmp eq ptr %15, null
  store i1 false, ptr %6, align 1
  br i1 %16, label %20, label %17

17:                                               ; preds = %14
  store ptr %15, ptr %5, align 8
  store i1 true, ptr %6, align 1
  %18 = load ptr, ptr %3, align 8, !tbaa !40
  invoke void @_ZN6icu_7734SimpleFilteredBreakIteratorBuilderC1ER10UErrorCode(ptr noundef nonnull align 8 dereferenceable(48) %15, ptr noundef nonnull align 4 dereferenceable(4) %18)
          to label %19 unwind label %34

19:                                               ; preds = %17
  br label %20

20:                                               ; preds = %19, %14
  %21 = phi ptr [ %15, %19 ], [ null, %14 ]
  %22 = load ptr, ptr %3, align 8, !tbaa !40
  call void @_ZN6icu_7712LocalPointerINS_28FilteredBreakIteratorBuilderEEC2EPS1_R10UErrorCode(ptr noundef nonnull align 8 dereferenceable(8) %4, ptr noundef %21, ptr noundef nonnull align 4 dereferenceable(4) %22)
  %23 = load ptr, ptr %3, align 8, !tbaa !40
  %24 = load i32, ptr %23, align 4, !tbaa !41
  %25 = invoke noundef signext i8 @_ZL9U_SUCCESS10UErrorCode(i32 noundef %24)
          to label %26 unwind label %42

26:                                               ; preds = %20
  %27 = icmp ne i8 %25, 0
  br i1 %27, label %28, label %31

28:                                               ; preds = %26
  %29 = invoke noundef ptr @_ZN6icu_7716LocalPointerBaseINS_28FilteredBreakIteratorBuilderEE6orphanEv(ptr noundef nonnull align 8 dereferenceable(8) %4)
          to label %30 unwind label %42

30:                                               ; preds = %28
  br label %32

31:                                               ; preds = %26
  br label %32

32:                                               ; preds = %31, %30
  %33 = phi ptr [ %29, %30 ], [ null, %31 ]
  store ptr %33, ptr %2, align 8
  call void @_ZN6icu_7712LocalPointerINS_28FilteredBreakIteratorBuilderEED2Ev(ptr noundef nonnull align 8 dereferenceable(8) %4) #13
  call void @llvm.lifetime.end.p0(i64 8, ptr %4) #13
  br label %47

34:                                               ; preds = %17
  %35 = landingpad { ptr, i32 }
          cleanup
  %36 = extractvalue { ptr, i32 } %35, 0
  store ptr %36, ptr %7, align 8
  %37 = extractvalue { ptr, i32 } %35, 1
  store i32 %37, ptr %8, align 4
  %38 = load i1, ptr %6, align 1
  br i1 %38, label %39, label %41

39:                                               ; preds = %34
  %40 = load ptr, ptr %5, align 8
  call void @_ZN6icu_777UMemorydlEPv(ptr noundef %40) #13
  br label %41

41:                                               ; preds = %39, %34
  br label %46

42:                                               ; preds = %28, %20
  %43 = landingpad { ptr, i32 }
          cleanup
  %44 = extractvalue { ptr, i32 } %43, 0
  store ptr %44, ptr %7, align 8
  %45 = extractvalue { ptr, i32 } %43, 1
  store i32 %45, ptr %8, align 4
  call void @_ZN6icu_7712LocalPointerINS_28FilteredBreakIteratorBuilderEED2Ev(ptr noundef nonnull align 8 dereferenceable(8) %4) #13
  br label %46

46:                                               ; preds = %42, %41
  call void @llvm.lifetime.end.p0(i64 8, ptr %4) #13
  br label %49

47:                                               ; preds = %32, %13
  %48 = load ptr, ptr %2, align 8
  ret ptr %48

49:                                               ; preds = %46
  %50 = load ptr, ptr %7, align 8
  %51 = load i32, ptr %8, align 4
  %52 = insertvalue { ptr, i32 } poison, ptr %50, 0
  %53 = insertvalue { ptr, i32 } %52, i32 %51, 1
  resume { ptr, i32 } %53
}

; Function Attrs: mustprogress uwtable
define noundef ptr @_ZN6icu_7728FilteredBreakIteratorBuilder14createInstanceER10UErrorCode(ptr noundef nonnull align 4 dereferenceable(4) %0) #2 align 2 {
  %2 = alloca ptr, align 8
  store ptr %0, ptr %2, align 8, !tbaa !40
  %3 = load ptr, ptr %2, align 8, !tbaa !40
  %4 = call noundef ptr @_ZN6icu_7728FilteredBreakIteratorBuilder19createEmptyInstanceER10UErrorCode(ptr noundef nonnull align 4 dereferenceable(4) %3)
  ret ptr %4
}